target datalayout = "e-m:e-p270:32:32-p271:32:32-p272:64:64-i64:64-i128:128-f80:128-n8:16:32:64-S128"
target triple = "x86_64-pc-linux-gnu"

%"struct.(anonymous namespace)::SynthSf2Pass" = type <{ %"struct.Yosys::ScriptPass", %"class.std::__cxx11::basic_string", %"class.std::__cxx11::basic_string", %"class.std::__cxx11::basic_string", %"class.std::__cxx11::basic_string", i8, i8, i8, i8, i8, [3 x i8] }>
%"struct.Yosys::ScriptPass" = type { %"struct.Yosys::Pass", i8, i8, ptr, %"class.std::__cxx11::basic_string", %"class.std::__cxx11::basic_string" }
%"struct.Yosys::Pass" = type { ptr, %"class.std::__cxx11::basic_string", %"class.std::__cxx11::basic_string", i32, i64, i8, ptr }
%"class.std::__cxx11::basic_string" = type { %"struct.std::__cxx11::basic_string<char>::_Alloc_hider", i64, %union.anon }
%"struct.std::__cxx11::basic_string<char>::_Alloc_hider" = type { ptr }
%union.anon = type { i64, [8 x i8] }

@.str.31 = private unnamed_addr constant [10 x i8] c"-auto-top\00", align 1
@.str.32 = private unnamed_addr constant [1 x i8] zeroinitializer, align 1

; Function Attrs: mustprogress uwtable
define internal void @_ZN12_GLOBAL__N_112SynthSf2Pass11clear_flagsEv(ptr noundef nonnull align 8 dereferenceable(317) %0) unnamed_addr #4 align 2 {
  %2 = alloca ptr, align 8
  store ptr %0, ptr %2, align 8
  %3 = load ptr, ptr %2, align 8
  %4 = getelementptr inbounds %"struct.(anonymous namespace)::SynthSf2Pass", ptr %3, i32 0, i32 1
  %5 = call noundef nonnull align 8 dereferenceable(32) ptr @_ZNSt7__cxx1112basic_stringIcSt11char_traitsIcESaIcEEaSEPKc(ptr noundef nonnull align 8 dereferenceable(32) %4, ptr noundef @.str.31)
  %6 = getelementptr inbounds %"struct.(anonymous namespace)::SynthSf2Pass", ptr %3, i32 0, i32 2
  %7 = call noundef nonnull align 8 dereferenceable(32) ptr @_ZNSt7__cxx1112basic_stringIcSt11char_traitsIcESaIcEEaSEPKc(ptr noundef nonnull align 8 dereferenceable(32) %6, ptr noundef @.str.32)
  %8 = getelementptr inbounds %"struct.(anonymous namespace)::SynthSf2Pass", ptr %3, i32 0, i32 3
  %9 = call noundef nonnull align 8 dereferenceable(32) ptr @_ZNSt7__cxx1112basic_stringIcSt11char_traitsIcESaIcEEaSEPKc(ptr noundef nonnull align 8 dereferenceable(32) %8, ptr noundef @.str.32)
  %10 = getelementptr inbounds %"struct.(anonymous namespace)::SynthSf2Pass", ptr %3, i32 0, i32 4
  %11 = call noundef nonnull align 8 dereferenceable(32) ptr @_ZNSt7__cxx1112basic_stringIcSt11char_traitsIcESaIcEEaSEPKc(ptr noundef nonnull align 8 dereferenceable(32) %10, ptr noundef @.str.32)
  %12 = getelementptr inbounds %"struct.(anonymous namespace)::SynthSf2Pass", ptr %3, i32 0, i32 5
  store i8 1, ptr %12, align 8
  %13 = getelementptr inbounds %"struct.(anonymous namespace)::SynthSf2Pass", ptr %3, i32 0, i32 6
  store i8 0, ptr %13, align 1
  %14 = getelementptr inbounds %"struct.(anonymous namespace)::SynthSf2Pass", ptr %3, i32 0, i32 7
  store i8 1, ptr %14, align 2
  %15 = getelementptr inbounds %"struct.(anonymous namespace)::SynthSf2Pass", ptr %3, i32 0, i32 8
  store i8 0, ptr %15, align 1
  %16 = getelementptr inbounds %"struct.(anonymous namespace)::SynthSf2Pass", ptr %3, i32 0, i32 9
  store i8 0, ptr %16, align 4
  ret void
}