; Function Attrs: mustprogress uwtable
define internal void @_ZN12_GLOBAL__N_112SynthSf2Pass11clear_flagsEv(ptr noundef nonnull align 8 dereferenceable(317) %0) unnamed_addr #4 align 2 {
  %2 = getelementptr inbounds i8, ptr %0, i64 184
  %3 = tail call noundef nonnull align 8 dereferenceable(32) ptr @_ZNSt7__cxx1112basic_stringIcSt11char_traitsIcESaIcEEaSEPKc(ptr noundef nonnull align 8 dereferenceable(32) %2, ptr noundef nonnull @.str.31)
  %4 = getelementptr inbounds i8, ptr %0, i64 216
  %5 = tail call noundef nonnull align 8 dereferenceable(32) ptr @_ZNSt7__cxx1112basic_stringIcSt11char_traitsIcESaIcEEaSEPKc(ptr noundef nonnull align 8 dereferenceable(32) %4, ptr noundef nonnull @.str.32)
  %6 = getelementptr inbounds i8, ptr %0, i64 248
  %7 = tail call noundef nonnull align 8 dereferenceable(32) ptr @_ZNSt7__cxx1112basic_stringIcSt11char_traitsIcESaIcEEaSEPKc(ptr noundef nonnull align 8 dereferenceable(32) %6, ptr noundef nonnull @.str.32)
  %8 = getelementptr inbounds i8, ptr %0, i64 280
  %9 = tail call noundef nonnull align 8 dereferenceable(32) ptr @_ZNSt7__cxx1112basic_stringIcSt11char_traitsIcESaIcEEaSEPKc(ptr noundef nonnull align 8 dereferenceable(32) %8, ptr noundef nonnull @.str.32)
  %10 = getelementptr inbounds i8, ptr %0, i64 312
  store <4 x i8> <i8 1, i8 0, i8 1, i8 0>, ptr %10, align 8
  %11 = getelementptr inbounds i8, ptr %0, i64 316
  store i8 0, ptr %11, align 4
  ret void
}